target datalayout = "e-m:e-p270:32:32-p271:32:32-p272:64:64-i64:64-i128:128-f80:128-n8:16:32:64-S128"
target triple = "x86_64-pc-linux-gnu"

%"class.std::basic_string_view" = type { i64, ptr }
%"struct.toml::v3::impl::formatter_constants" = type { i64, i64, %"class.std::basic_string_view", %"class.std::basic_string_view", %"class.std::basic_string_view", %"class.std::basic_string_view", %"class.std::basic_string_view" }
%"struct.toml::v3::source_position" = type { i32, i32 }
%"struct.toml::v3::source_region" = type { %"struct.toml::v3::source_position", %"struct.toml::v3::source_position", %"class.std::shared_ptr" }
%"class.std::shared_ptr" = type { %"class.std::__shared_ptr" }
%"class.std::__shared_ptr" = type { ptr, %"class.std::__shared_count" }
%"class.std::__shared_count" = type { ptr }
%"struct.toml::v3::impl::formatter_config" = type { i64, %"class.std::basic_string_view" }
%"class.toml::v3::node" = type { ptr, %"struct.toml::v3::source_region" }
%"class.toml::v3::impl::formatter" = type <{ ptr, ptr, %"struct.toml::v3::impl::formatter_config", i64, i64, ptr, i32, i8, [3 x i8] }>
%"class.toml::v3::value.13" = type <{ %"class.toml::v3::node", double, i16, [6 x i8] }>

; Function Attrs: mustprogress nounwind uwtable
define linkonce_odr noundef i64 @_ZNKSt17basic_string_viewIcSt11char_traitsIcEE6lengthEv(ptr noundef nonnull align 8 dereferenceable(16) %0) #2 comdat align 2 {
  %2 = alloca ptr, align 8
  store ptr %0, ptr %2, align 8, !tbaa !12
  %3 = load ptr, ptr %2, align 8
  %4 = getelementptr inbounds nuw %"class.std::basic_string_view", ptr %3, i32 0, i32 0
  %5 = load i64, ptr %4, align 8, !tbaa !16
  ret i64 %5
}

; Function Attrs: mustprogress nounwind uwtable
define linkonce_odr noundef ptr @_ZNKSt17basic_string_viewIcSt11char_traitsIcEE4dataEv(ptr noundef nonnull align 8 dereferenceable(16) %0) #2 comdat align 2 {
  %2 = alloca ptr, align 8
  store ptr %0, ptr %2, align 8, !tbaa !12
  %3 = load ptr, ptr %2, align 8
  %4 = getelementptr inbounds nuw %"class.std::basic_string_view", ptr %3, i32 0, i32 1
  %5 = load ptr, ptr %4, align 8, !tbaa !14
  ret ptr %5
}

; Function Attrs: mustprogress uwtable
define void @_ZN4toml2v34impl15print_to_streamERSoc(ptr noundef nonnull align 8 dereferenceable(8) %0, i8 noundef signext %1) #0 {
  %3 = alloca ptr, align 8
  %4 = alloca i8, align 1
  store ptr %0, ptr %3, align 8, !tbaa !3
  store i8 %1, ptr %4, align 1, !tbaa !22
  %5 = load ptr, ptr %3, align 8, !tbaa !3
  %6 = load i8, ptr %4, align 1, !tbaa !22
  %7 = call noundef nonnull align 8 dereferenceable(8) ptr @_ZNSo3putEc(ptr noundef nonnull align 8 dereferenceable(8) %5, i8 noundef signext %6)
  ret void
}

; Function Attrs: mustprogress uwtable
define void @_ZN4toml2v34impl15print_to_streamERSoSt17basic_string_viewIcSt11char_traitsIcEE(ptr noundef nonnull align 8 dereferenceable(8) %0, i64 %1, ptr %2) #0 {
  %4 = alloca %"class.std::basic_string_view", align 8
  %5 = alloca ptr, align 8
  %6 = getelementptr inbounds nuw { i64, ptr }, ptr %4, i32 0, i32 0
  store i64 %1, ptr %6, align 8
  %7 = getelementptr inbounds nuw { i64, ptr }, ptr %4, i32 0, i32 1
  store ptr %2, ptr %7, align 8
  store ptr %0, ptr %5, align 8, !tbaa !3
  %8 = load ptr, ptr %5, align 8, !tbaa !3
  %9 = call noundef ptr @_ZNKSt17basic_string_viewIcSt11char_traitsIcEE4dataEv(ptr noundef nonnull align 8 dereferenceable(16) %4) #36
  %10 = call noundef i64 @_ZNKSt17basic_string_viewIcSt11char_traitsIcEE6lengthEv(ptr noundef nonnull align 8 dereferenceable(16) %4) #36
  %11 = call noundef nonnull align 8 dereferenceable(8) ptr @_ZNSo5writeEPKcl(ptr noundef nonnull align 8 dereferenceable(8) %8, ptr noundef %9, i64 noundef %10)
  ret void
}

; Function Attrs: inlinehint mustprogress uwtable
define linkonce_odr void @_ZN4toml2v34impl25print_to_stream_bookendedISt17basic_string_viewIcSt11char_traitsIcEEcEEvRSoRKT_RKT0_(ptr noundef nonnull align 8 dereferenceable(8) %0, ptr noundef nonnull align 8 dereferenceable(16) %1, ptr noundef nonnull align 1 dereferenceable(1) %2) #12 comdat {
  %4 = alloca ptr, align 8
  %5 = alloca ptr, align 8
  %6 = alloca ptr, align 8
  %7 = alloca %"class.std::basic_string_view", align 8
  store ptr %0, ptr %4, align 8, !tbaa !3
  store ptr %1, ptr %5, align 8, !tbaa !12
  store ptr %2, ptr %6, align 8, !tbaa !8
  %8 = load ptr, ptr %4, align 8, !tbaa !3
  %9 = load ptr, ptr %6, align 8, !tbaa !8
  %10 = load i8, ptr %9, align 1, !tbaa !22
  call void @_ZN4toml2v34impl15print_to_streamERSoc(ptr noundef nonnull align 8 dereferenceable(8) %8, i8 noundef signext %10)
  %11 = load ptr, ptr %4, align 8, !tbaa !3
  %12 = load ptr, ptr %5, align 8, !tbaa !12
  call void @llvm.memcpy.p0.p0.i64(ptr align 8 %7, ptr align 8 %12, i64 16, i1 false), !tbaa.struct !150
  %13 = getelementptr inbounds nuw { i64, ptr }, ptr %7, i32 0, i32 0
  %14 = load i64, ptr %13, align 8
  %15 = getelementptr inbounds nuw { i64, ptr }, ptr %7, i32 0, i32 1
  %16 = load ptr, ptr %15, align 8
  call void @_ZN4toml2v34impl15print_to_streamERSoSt17basic_string_viewIcSt11char_traitsIcEE(ptr noundef nonnull align 8 dereferenceable(8) %11, i64 %14, ptr %16)
  %17 = load ptr, ptr %4, align 8, !tbaa !3
  %18 = load ptr, ptr %6, align 8, !tbaa !8
  %19 = load i8, ptr %18, align 1, !tbaa !22
  call void @_ZN4toml2v34impl15print_to_streamERSoc(ptr noundef nonnull align 8 dereferenceable(8) %17, i8 noundef signext %19)
  ret void
}

; Function Attrs: alwaysinline mustprogress nounwind willreturn memory(none) uwtable
define linkonce_odr noundef zeroext i1 @_ZN4toml2v3ntENS0_12format_flagsE(i64 noundef %0) #23 comdat {
  %2 = alloca i64, align 8
  store i64 %0, ptr %2, align 8, !tbaa !118
  %3 = load i64, ptr %2, align 8, !tbaa !118
  %4 = icmp ne i64 %3, 0
  %5 = xor i1 %4, true
  ret i1 %5
}

; Function Attrs: alwaysinline mustprogress nounwind willreturn memory(none) uwtable
define linkonce_odr noundef i64 @_ZN4toml2v3anENS0_12format_flagsES1_(i64 noundef %0, i64 noundef %1) #23 comdat {
  %3 = alloca i64, align 8
  %4 = alloca i64, align 8
  store i64 %0, ptr %3, align 8, !tbaa !118
  store i64 %1, ptr %4, align 8, !tbaa !118
  %5 = load i64, ptr %3, align 8, !tbaa !118
  %6 = load i64, ptr %4, align 8, !tbaa !118
  %7 = and i64 %5, %6
  ret i64 %7
}

; Function Attrs: inlinehint mustprogress nounwind willreturn memory(read) uwtable
define linkonce_odr noundef i32 @_ZN4toml2v34impl10fpclassifyERKd(ptr noundef nonnull align 8 dereferenceable(8) %0) #25 comdat {
  %2 = alloca i32, align 4
  %3 = alloca ptr, align 8
  %4 = alloca i64, align 8
  %5 = alloca i32, align 4
  store ptr %0, ptr %3, align 8, !tbaa !404
  call void @llvm.lifetime.start.p0(i64 8, ptr %4) #36
  %6 = load ptr, ptr %3, align 8, !tbaa !404
  call void @llvm.memcpy.p0.p0.i64(ptr align 8 %4, ptr align 8 %6, i64 8, i1 false)
  %7 = load i64, ptr %4, align 8, !tbaa !10
  %8 = and i64 %7, 9218868437227405312
  %9 = icmp ne i64 %8, 9218868437227405312
  br i1 %9, label %10, label %11

10:                                               ; preds = %1
  store i32 0, ptr %2, align 4
  store i32 1, ptr %5, align 4
  br label %21

11:                                               ; preds = %1
  %12 = load i64, ptr %4, align 8, !tbaa !10
  %13 = and i64 %12, 4503599627370495
  %14 = icmp ne i64 %13, 0
  br i1 %14, label %15, label %16

15:                                               ; preds = %11
  store i32 3, ptr %2, align 4
  store i32 1, ptr %5, align 4
  br label %21

16:                                               ; preds = %11
  %17 = load i64, ptr %4, align 8, !tbaa !10
  %18 = and i64 %17, -9223372036854775808
  %19 = icmp ne i64 %18, 0
  %20 = select i1 %19, i32 1, i32 2
  store i32 %20, ptr %2, align 4
  store i32 1, ptr %5, align 4
  br label %21

21:                                               ; preds = %16, %15, %10
  call void @llvm.lifetime.end.p0(i64 8, ptr %4) #36
  %22 = load i32, ptr %2, align 4
  ret i32 %22
}

; Function Attrs: alwaysinline mustprogress nounwind willreturn memory(read) uwtable
define linkonce_odr noundef nonnull align 8 dereferenceable(8) ptr @_ZNKR4toml2v35valueIdEdeEv(ptr noundef nonnull align 8 dereferenceable(50) %0) #5 comdat align 2 {
  %2 = alloca ptr, align 8
  store ptr %0, ptr %2, align 8, !tbaa !138
  %3 = load ptr, ptr %2, align 8
  %4 = getelementptr inbounds nuw %"class.toml::v3::value.13", ptr %3, i32 0, i32 1
  ret ptr %4
}

; Function Attrs: mustprogress uwtable
define void @_ZN4toml2v34impl9formatter5printERKNS0_5valueIdEE(ptr noundef nonnull align 8 dereferenceable(69) %0, ptr noundef nonnull align 8 dereferenceable(50) %1) #0 align 2 {
  %3 = alloca ptr, align 8
  %4 = alloca ptr, align 8
  %5 = alloca ptr, align 8
  %6 = alloca i8, align 1
  %7 = alloca %"class.std::basic_string_view", align 8
  store ptr %0, ptr %3, align 8, !tbaa !374
  store ptr %1, ptr %4, align 8, !tbaa !138
  %8 = load ptr, ptr %3, align 8
  call void @llvm.lifetime.start.p0(i64 8, ptr %5) #36
  store ptr null, ptr %5, align 8, !tbaa !12
  %9 = load ptr, ptr %4, align 8, !tbaa !138
  %10 = call noundef nonnull align 8 dereferenceable(8) ptr @_ZNKR4toml2v35valueIdEdeEv(ptr noundef nonnull align 8 dereferenceable(50) %9) #37
  %11 = call noundef i32 @_ZN4toml2v34impl10fpclassifyERKd(ptr noundef nonnull align 8 dereferenceable(8) %10) #37
  switch i32 %11, label %36 [
    i32 1, label %12
    i32 2, label %16
    i32 3, label %20
    i32 0, label %24
  ]

12:                                               ; preds = %2
  %13 = getelementptr inbounds nuw %"class.toml::v3::impl::formatter", ptr %8, i32 0, i32 1
  %14 = load ptr, ptr %13, align 8, !tbaa !380
  %15 = getelementptr inbounds nuw %"struct.toml::v3::impl::formatter_constants", ptr %14, i32 0, i32 3
  store ptr %15, ptr %5, align 8, !tbaa !12
  br label %37

16:                                               ; preds = %2
  %17 = getelementptr inbounds nuw %"class.toml::v3::impl::formatter", ptr %8, i32 0, i32 1
  %18 = load ptr, ptr %17, align 8, !tbaa !380
  %19 = getelementptr inbounds nuw %"struct.toml::v3::impl::formatter_constants", ptr %18, i32 0, i32 2
  store ptr %19, ptr %5, align 8, !tbaa !12
  br label %37

20:                                               ; preds = %2
  %21 = getelementptr inbounds nuw %"class.toml::v3::impl::formatter", ptr %8, i32 0, i32 1
  %22 = load ptr, ptr %21, align 8, !tbaa !380
  %23 = getelementptr inbounds nuw %"struct.toml::v3::impl::formatter_constants", ptr %22, i32 0, i32 4
  store ptr %23, ptr %5, align 8, !tbaa !12
  br label %37

24:                                               ; preds = %2
  %25 = getelementptr inbounds nuw %"class.toml::v3::impl::formatter", ptr %8, i32 0, i32 5
  %26 = load ptr, ptr %25, align 8, !tbaa !390
  %27 = load ptr, ptr %4, align 8, !tbaa !138
  %28 = call noundef nonnull align 8 dereferenceable(8) ptr @_ZNKR4toml2v35valueIdEdeEv(ptr noundef nonnull align 8 dereferenceable(50) %27) #37
  %29 = load double, ptr %28, align 8, !tbaa !71
  %30 = getelementptr inbounds nuw %"class.toml::v3::impl::formatter", ptr %8, i32 0, i32 2
  %31 = getelementptr inbounds nuw %"struct.toml::v3::impl::formatter_config", ptr %30, i32 0, i32 0
  %32 = load i64, ptr %31, align 8, !tbaa !382
  %33 = call noundef i64 @_ZN4toml2v3anENS0_12format_flagsES1_(i64 noundef %32, i64 noundef 2048) #38
  %34 = call noundef zeroext i1 @_ZN4toml2v3ntENS0_12format_flagsE(i64 noundef %33) #38
  %35 = xor i1 %34, true
  call void @_ZN4toml2v34impl15print_to_streamERSodNS0_11value_flagsEb(ptr noundef nonnull align 8 dereferenceable(8) %26, double noundef %29, i16 noundef zeroext 0, i1 noundef zeroext %35)
  br label %37

36:                                               ; preds = %2
  unreachable

37:                                               ; preds = %24, %20, %16, %12
  %38 = load ptr, ptr %5, align 8, !tbaa !12
  %39 = icmp ne ptr %38, null
  br i1 %39, label %40, label %59

40:                                               ; preds = %37
  %41 = getelementptr inbounds nuw %"class.toml::v3::impl::formatter", ptr %8, i32 0, i32 2
  %42 = getelementptr inbounds nuw %"struct.toml::v3::impl::formatter_config", ptr %41, i32 0, i32 0
  %43 = load i64, ptr %42, align 8, !tbaa !382
  %44 = call noundef i64 @_ZN4toml2v3anENS0_12format_flagsES1_(i64 noundef %43, i64 noundef 2) #38
  %45 = call noundef zeroext i1 @_ZN4toml2v3ntENS0_12format_flagsE(i64 noundef %44) #38
  br i1 %45, label %50, label %46

46:                                               ; preds = %40
  %47 = getelementptr inbounds nuw %"class.toml::v3::impl::formatter", ptr %8, i32 0, i32 5
  %48 = load ptr, ptr %47, align 8, !tbaa !390
  %49 = load ptr, ptr %5, align 8, !tbaa !12
  call void @llvm.lifetime.start.p0(i64 1, ptr %6) #36
  store i8 34, ptr %6, align 1, !tbaa !22
  call void @_ZN4toml2v34impl25print_to_stream_bookendedISt17basic_string_viewIcSt11char_traitsIcEEcEEvRSoRKT_RKT0_(ptr noundef nonnull align 8 dereferenceable(8) %48, ptr noundef nonnull align 8 dereferenceable(16) %49, ptr noundef nonnull align 1 dereferenceable(1) %6)
  call void @llvm.lifetime.end.p0(i64 1, ptr %6) #36
  br label %58

50:                                               ; preds = %40
  %51 = getelementptr inbounds nuw %"class.toml::v3::impl::formatter", ptr %8, i32 0, i32 5
  %52 = load ptr, ptr %51, align 8, !tbaa !390
  %53 = load ptr, ptr %5, align 8, !tbaa !12
  call void @llvm.memcpy.p0.p0.i64(ptr align 8 %7, ptr align 8 %53, i64 16, i1 false), !tbaa.struct !150
  %54 = getelementptr inbounds nuw { i64, ptr }, ptr %7, i32 0, i32 0
  %55 = load i64, ptr %54, align 8
  %56 = getelementptr inbounds nuw { i64, ptr }, ptr %7, i32 0, i32 1
  %57 = load ptr, ptr %56, align 8
  call void @_ZN4toml2v34impl15print_to_streamERSoSt17basic_string_viewIcSt11char_traitsIcEE(ptr noundef nonnull align 8 dereferenceable(8) %52, i64 %55, ptr %57)
  br label %58

58:                                               ; preds = %50, %46
  br label %59

59:                                               ; preds = %58, %37
  %60 = getelementptr inbounds nuw %"class.toml::v3::impl::formatter", ptr %8, i32 0, i32 7
  store i8 0, ptr %60, align 4, !tbaa !389
  call void @llvm.lifetime.end.p0(i64 8, ptr %5) #36
  ret void
}