; Function Attrs: mustprogress uwtable
define void @_ZN4toml2v34impl9formatter5printERKNS0_5valueIdEE(ptr noundef nonnull align 8 captures(none) dereferenceable(69) initializes((68, 69)) %0, ptr noundef nonnull readonly align 8 captures(none) dereferenceable(50) %1) local_unnamed_addr #0 align 2 {
  %3 = getelementptr inbounds nuw i8, ptr %1, i64 40
  %.0.copyload.i = load i64, ptr %3, align 8
  %4 = and i64 %.0.copyload.i, 9218868437227405312
  %.not.i7 = icmp eq i64 %4, 9218868437227405312
  br i1 %.not.i7, label %5, label %18

5:                                                ; preds = %2
  %6 = and i64 %.0.copyload.i, 4503599627370495
  %.not4.i = icmp eq i64 %6, 0
  br i1 %.not4.i, label %7, label %14

7:                                                ; preds = %5
  %.not5.i = icmp sgt i64 %.0.copyload.i, -1
  %8 = getelementptr inbounds nuw i8, ptr %0, i64 8
  %9 = load ptr, ptr %8, align 8, !tbaa !113
  br i1 %.not5.i, label %12, label %10

10:                                               ; preds = %7
  %11 = getelementptr inbounds nuw i8, ptr %9, i64 32
  br label %25

12:                                               ; preds = %7
  %13 = getelementptr inbounds nuw i8, ptr %9, i64 16
  br label %25

14:                                               ; preds = %5
  %15 = getelementptr inbounds nuw i8, ptr %0, i64 8
  %16 = load ptr, ptr %15, align 8, !tbaa !113
  %17 = getelementptr inbounds nuw i8, ptr %16, i64 48
  br label %25

18:                                               ; preds = %2
  %19 = bitcast i64 %.0.copyload.i to double
  %20 = getelementptr inbounds nuw i8, ptr %0, i64 56
  %21 = load ptr, ptr %20, align 8, !tbaa !121
  %22 = getelementptr inbounds nuw i8, ptr %0, i64 16
  %23 = load i64, ptr %22, align 8, !tbaa !116
  %24 = and i64 %23, 2048
  %.not.i6 = icmp ne i64 %24, 0
  tail call void @_ZN4toml2v34impl15print_to_streamERSodNS0_11value_flagsEb(ptr noundef nonnull align 8 dereferenceable(8) %21, double noundef %19, i16 noundef zeroext 0, i1 noundef zeroext %.not.i6)
  br label %37

25:                                               ; preds = %14, %12, %10
  %.0.ph = phi ptr [ %11, %10 ], [ %13, %12 ], [ %17, %14 ]
  %26 = getelementptr inbounds nuw i8, ptr %0, i64 16
  %27 = load i64, ptr %26, align 8, !tbaa !116
  %28 = and i64 %27, 2
  %.not.i = icmp eq i64 %28, 0
  %29 = getelementptr inbounds nuw i8, ptr %0, i64 56
  %30 = load ptr, ptr %29, align 8, !tbaa !121
  br i1 %.not.i, label %35, label %31

31:                                               ; preds = %25
  %32 = tail call noundef nonnull align 8 dereferenceable(8) ptr @_ZNSo3putEc(ptr noundef nonnull align 8 dereferenceable(8) %30, i8 noundef signext 34)
  %.sroa.0.0.copyload.i = load i64, ptr %.0.ph, align 8, !tbaa !114
  %.sroa.2.0..sroa_idx.i = getelementptr inbounds nuw i8, ptr %.0.ph, i64 8
  %.sroa.2.0.copyload.i = load ptr, ptr %.sroa.2.0..sroa_idx.i, align 8, !tbaa !115
  %33 = tail call noundef nonnull align 8 dereferenceable(8) ptr @_ZNSo5writeEPKcl(ptr noundef nonnull align 8 dereferenceable(8) %30, ptr noundef %.sroa.2.0.copyload.i, i64 noundef %.sroa.0.0.copyload.i)
  %34 = tail call noundef nonnull align 8 dereferenceable(8) ptr @_ZNSo3putEc(ptr noundef nonnull align 8 dereferenceable(8) %30, i8 noundef signext 34)
  br label %37

35:                                               ; preds = %25
  %.sroa.0.0.copyload = load i64, ptr %.0.ph, align 8, !tbaa !114
  %.sroa.2.0..sroa_idx = getelementptr inbounds nuw i8, ptr %.0.ph, i64 8
  %.sroa.2.0.copyload = load ptr, ptr %.sroa.2.0..sroa_idx, align 8, !tbaa !115
  %36 = tail call noundef nonnull align 8 dereferenceable(8) ptr @_ZNSo5writeEPKcl(ptr noundef nonnull align 8 dereferenceable(8) %30, ptr noundef %.sroa.2.0.copyload, i64 noundef %.sroa.0.0.copyload)
  br label %37

37:                                               ; preds = %18, %31, %35
  %38 = getelementptr inbounds nuw i8, ptr %0, i64 68
  store i8 0, ptr %38, align 4, !tbaa !120
  ret void
}